target datalayout = "e-m:e-p270:32:32-p271:32:32-p272:64:64-i64:64-i128:128-f80:128-n8:16:32:64-S128"
target triple = "x86_64-pc-linux-gnu"

%struct.Ndr_Data_t_ = type { i32, i32, ptr, ptr }

@.str.140 = private unnamed_addr constant [3 x i8] c"rb\00", align 1
@.str.141 = private unnamed_addr constant [36 x i8] c"Cannot open file \22%s\22 for reading.\0A\00", align 1

; Function Attrs: inlinehint nounwind uwtable
define internal ptr @Ndr_Read(ptr noundef %0) #4 {
  %2 = alloca ptr, align 8
  %3 = alloca ptr, align 8
  %4 = alloca ptr, align 8
  %5 = alloca i32, align 4
  %6 = alloca i32, align 4
  %7 = alloca ptr, align 8
  %8 = alloca i32, align 4
  store ptr %0, ptr %3, align 8, !tbaa !24
  call void @llvm.lifetime.start.p0(i64 8, ptr %4) #11
  call void @llvm.lifetime.start.p0(i64 4, ptr %5) #11
  call void @llvm.lifetime.start.p0(i64 4, ptr %6) #11
  call void @llvm.lifetime.start.p0(i64 8, ptr %7) #11
  %9 = load ptr, ptr %3, align 8, !tbaa !24
  %10 = call noalias ptr @fopen(ptr noundef %9, ptr noundef @.str.140)
  store ptr %10, ptr %7, align 8, !tbaa !50
  %11 = load ptr, ptr %7, align 8, !tbaa !50
  %12 = icmp eq ptr %11, null
  br i1 %12, label %13, label %16

13:                                               ; preds = %1
  %14 = load ptr, ptr %3, align 8, !tbaa !24
  %15 = call i32 (ptr, ...) @printf(ptr noundef @.str.141, ptr noundef %14)
  store ptr null, ptr %2, align 8
  store i32 1, ptr %8, align 4
  br label %75

16:                                               ; preds = %1
  %17 = load ptr, ptr %7, align 8, !tbaa !50
  %18 = call i32 @fseek(ptr noundef %17, i64 noundef 0, i32 noundef 2)
  %19 = load ptr, ptr %7, align 8, !tbaa !50
  %20 = call i64 @ftell(ptr noundef %19)
  %21 = trunc i64 %20 to i32
  store i32 %21, ptr %5, align 4, !tbaa !3
  %22 = load i32, ptr %5, align 4, !tbaa !3
  %23 = srem i32 %22, 5
  %24 = icmp ne i32 %23, 0
  br i1 %24, label %25, label %26

25:                                               ; preds = %16
  store ptr null, ptr %2, align 8
  store i32 1, ptr %8, align 4
  br label %75

26:                                               ; preds = %16
  %27 = load ptr, ptr %7, align 8, !tbaa !50
  call void @rewind(ptr noundef %27)
  %28 = call noalias ptr @malloc(i64 noundef 24) #13
  store ptr %28, ptr %4, align 8, !tbaa !29
  %29 = load i32, ptr %5, align 4, !tbaa !3
  %30 = sdiv i32 %29, 5
  %31 = load ptr, ptr %4, align 8, !tbaa !29
  %32 = getelementptr inbounds nuw %struct.Ndr_Data_t_, ptr %31, i32 0, i32 1
  store i32 %30, ptr %32, align 4, !tbaa !33
  %33 = load ptr, ptr %4, align 8, !tbaa !29
  %34 = getelementptr inbounds nuw %struct.Ndr_Data_t_, ptr %33, i32 0, i32 0
  store i32 %30, ptr %34, align 8, !tbaa !31
  %35 = load ptr, ptr %4, align 8, !tbaa !29
  %36 = getelementptr inbounds nuw %struct.Ndr_Data_t_, ptr %35, i32 0, i32 1
  %37 = load i32, ptr %36, align 4, !tbaa !33
  %38 = sext i32 %37 to i64
  %39 = mul i64 1, %38
  %40 = call noalias ptr @malloc(i64 noundef %39) #13
  %41 = load ptr, ptr %4, align 8, !tbaa !29
  %42 = getelementptr inbounds nuw %struct.Ndr_Data_t_, ptr %41, i32 0, i32 2
  store ptr %40, ptr %42, align 8, !tbaa !34
  %43 = load ptr, ptr %4, align 8, !tbaa !29
  %44 = getelementptr inbounds nuw %struct.Ndr_Data_t_, ptr %43, i32 0, i32 1
  %45 = load i32, ptr %44, align 4, !tbaa !33
  %46 = mul nsw i32 %45, 4
  %47 = sext i32 %46 to i64
  %48 = mul i64 4, %47
  %49 = call noalias ptr @malloc(i64 noundef %48) #13
  %50 = load ptr, ptr %4, align 8, !tbaa !29
  %51 = getelementptr inbounds nuw %struct.Ndr_Data_t_, ptr %50, i32 0, i32 3
  store ptr %49, ptr %51, align 8, !tbaa !35
  %52 = load ptr, ptr %4, align 8, !tbaa !29
  %53 = getelementptr inbounds nuw %struct.Ndr_Data_t_, ptr %52, i32 0, i32 3
  %54 = load ptr, ptr %53, align 8, !tbaa !35
  %55 = load ptr, ptr %4, align 8, !tbaa !29
  %56 = getelementptr inbounds nuw %struct.Ndr_Data_t_, ptr %55, i32 0, i32 1
  %57 = load i32, ptr %56, align 4, !tbaa !33
  %58 = sext i32 %57 to i64
  %59 = load ptr, ptr %7, align 8, !tbaa !50
  %60 = call i64 @fread(ptr noundef %54, i64 noundef 4, i64 noundef %58, ptr noundef %59)
  %61 = trunc i64 %60 to i32
  store i32 %61, ptr %6, align 4, !tbaa !3
  %62 = load ptr, ptr %4, align 8, !tbaa !29
  %63 = getelementptr inbounds nuw %struct.Ndr_Data_t_, ptr %62, i32 0, i32 2
  %64 = load ptr, ptr %63, align 8, !tbaa !34
  %65 = load ptr, ptr %4, align 8, !tbaa !29
  %66 = getelementptr inbounds nuw %struct.Ndr_Data_t_, ptr %65, i32 0, i32 1
  %67 = load i32, ptr %66, align 4, !tbaa !33
  %68 = sext i32 %67 to i64
  %69 = load ptr, ptr %7, align 8, !tbaa !50
  %70 = call i64 @fread(ptr noundef %64, i64 noundef 1, i64 noundef %68, ptr noundef %69)
  %71 = trunc i64 %70 to i32
  store i32 %71, ptr %6, align 4, !tbaa !3
  %72 = load ptr, ptr %7, align 8, !tbaa !50
  %73 = call i32 @fclose(ptr noundef %72)
  %74 = load ptr, ptr %4, align 8, !tbaa !29
  store ptr %74, ptr %2, align 8
  store i32 1, ptr %8, align 4
  br label %75

75:                                               ; preds = %26, %25, %13
  call void @llvm.lifetime.end.p0(i64 8, ptr %7) #11
  call void @llvm.lifetime.end.p0(i64 4, ptr %6) #11
  call void @llvm.lifetime.end.p0(i64 4, ptr %5) #11
  call void @llvm.lifetime.end.p0(i64 8, ptr %4) #11
  %76 = load ptr, ptr %2, align 8
  ret ptr %76
}

; Function Attrs: nounwind uwtable
define ptr @Wlc_ReadNdr(ptr noundef %0) #0 {
  %2 = alloca ptr, align 8
  %3 = alloca ptr, align 8
  %4 = alloca ptr, align 8
  store ptr %0, ptr %2, align 8, !tbaa !24
  call void @llvm.lifetime.start.p0(i64 8, ptr %3) #11
  %5 = load ptr, ptr %2, align 8, !tbaa !24
  %6 = call ptr @Ndr_Read(ptr noundef %5)
  store ptr %6, ptr %3, align 8, !tbaa !15
  call void @llvm.lifetime.start.p0(i64 8, ptr %4) #11
  %7 = load ptr, ptr %3, align 8, !tbaa !15
  %8 = call ptr @Wlc_NtkFromNdr(ptr noundef %7)
  store ptr %8, ptr %4, align 8, !tbaa !13
  %9 = call ptr (...) @Abc_FrameGetGlobalFrame()
  %10 = load ptr, ptr %3, align 8, !tbaa !15
  call void @Abc_FrameInputNdr(ptr noundef %9, ptr noundef %10)
  %11 = load ptr, ptr %4, align 8, !tbaa !13
  call void @llvm.lifetime.end.p0(i64 8, ptr %4) #11
  call void @llvm.lifetime.end.p0(i64 8, ptr %3) #11
  ret ptr %11
}