; Function Attrs: nounwind uwtable
define ptr @Wlc_ReadNdr(ptr noundef %0) local_unnamed_addr #5 {
  %2 = tail call noalias ptr @fopen(ptr noundef %0, ptr noundef nonnull @.str.140)
  %3 = icmp eq ptr %2, null
  br i1 %3, label %4, label %6

4:                                                ; preds = %1
  %5 = tail call i32 (ptr, ...) @printf(ptr noundef nonnull dereferenceable(1) @.str.141, ptr noundef %0)
  br label %Ndr_Read.exit

6:                                                ; preds = %1
  %7 = tail call i32 @fseek(ptr noundef nonnull %2, i64 noundef 0, i32 noundef 2)
  %8 = tail call i64 @ftell(ptr noundef nonnull %2)
  %9 = trunc i64 %8 to i32
  %10 = srem i32 %9, 5
  %11 = sdiv i32 %9, 5
  %.not.i = icmp eq i32 %10, 0
  br i1 %.not.i, label %12, label %Ndr_Read.exit

12:                                               ; preds = %6
  tail call void @rewind(ptr noundef nonnull %2)
  %13 = tail call noalias dereferenceable_or_null(24) ptr @malloc(i64 noundef 24) #24
  %14 = getelementptr inbounds nuw i8, ptr %13, i64 4
  store i32 %11, ptr %14, align 4, !tbaa !10
  store i32 %11, ptr %13, align 8, !tbaa !17
  %15 = sext i32 %11 to i64
  %16 = tail call noalias ptr @malloc(i64 noundef %15) #24
  %17 = getelementptr inbounds nuw i8, ptr %13, i64 8
  store ptr %16, ptr %17, align 8, !tbaa !15
  %18 = shl nsw i32 %11, 2
  %19 = sext i32 %18 to i64
  %20 = shl nsw i64 %19, 2
  %21 = tail call noalias ptr @malloc(i64 noundef %20) #24
  %22 = getelementptr inbounds nuw i8, ptr %13, i64 16
  store ptr %21, ptr %22, align 8, !tbaa !16
  %23 = tail call i64 @fread(ptr noundef %21, i64 noundef 4, i64 noundef %15, ptr noundef nonnull %2)
  %24 = tail call i64 @fread(ptr noundef %16, i64 noundef 1, i64 noundef %15, ptr noundef nonnull %2)
  %25 = tail call i32 @fclose(ptr noundef nonnull %2)
  br label %Ndr_Read.exit

Ndr_Read.exit:                                    ; preds = %4, %6, %12
  %.0.i = phi ptr [ null, %4 ], [ %13, %12 ], [ null, %6 ]
  %26 = tail call ptr @Wlc_NtkFromNdr(ptr noundef %.0.i)
  %27 = tail call ptr (...) @Abc_FrameGetGlobalFrame() #22
  tail call void @Abc_FrameInputNdr(ptr noundef %27, ptr noundef %.0.i) #22
  ret ptr %26
}